target datalayout = "e-m:e-p270:32:32-p271:32:32-p272:64:64-i64:64-i128:128-f80:128-n8:16:32:64-S128"
target triple = "x86_64-pc-linux-gnu"

; Function Attrs: nounwind uwtable
define internal void @Abc_SelectSortInc(ptr noundef %0, i32 noundef %1) #0 {
  %3 = alloca ptr, align 8
  %4 = alloca i32, align 4
  %5 = alloca i32, align 4
  %6 = alloca i32, align 4
  %7 = alloca i32, align 4
  %8 = alloca i64, align 8
  store ptr %0, ptr %3, align 8
  store i32 %1, ptr %4, align 4
  store i32 0, ptr %5, align 4
  br label %9

9:                                                ; preds = %62, %2
  %10 = load i32, ptr %5, align 4
  %11 = load i32, ptr %4, align 4
  %12 = sub nsw i32 %11, 1
  %13 = icmp slt i32 %10, %12
  br i1 %13, label %14, label %65

14:                                               ; preds = %9
  %15 = load i32, ptr %5, align 4
  store i32 %15, ptr %7, align 4
  %16 = load i32, ptr %5, align 4
  %17 = add nsw i32 %16, 1
  store i32 %17, ptr %6, align 4
  br label %18

18:                                               ; preds = %39, %14
  %19 = load i32, ptr %6, align 4
  %20 = load i32, ptr %4, align 4
  %21 = icmp slt i32 %19, %20
  br i1 %21, label %22, label %42

22:                                               ; preds = %18
  %23 = load ptr, ptr %3, align 8
  %24 = load i32, ptr %6, align 4
  %25 = sext i32 %24 to i64
  %26 = getelementptr inbounds i64, ptr %23, i64 %25
  %27 = load i64, ptr %26, align 8
  %28 = trunc i64 %27 to i32
  %29 = load ptr, ptr %3, align 8
  %30 = load i32, ptr %7, align 4
  %31 = sext i32 %30 to i64
  %32 = getelementptr inbounds i64, ptr %29, i64 %31
  %33 = load i64, ptr %32, align 8
  %34 = trunc i64 %33 to i32
  %35 = icmp ult i32 %28, %34
  br i1 %35, label %36, label %38

36:                                               ; preds = %22
  %37 = load i32, ptr %6, align 4
  store i32 %37, ptr %7, align 4
  br label %38

38:                                               ; preds = %36, %22
  br label %39

39:                                               ; preds = %38
  %40 = load i32, ptr %6, align 4
  %41 = add nsw i32 %40, 1
  store i32 %41, ptr %6, align 4
  br label %18, !llvm.loop !35

42:                                               ; preds = %18
  %43 = load ptr, ptr %3, align 8
  %44 = load i32, ptr %5, align 4
  %45 = sext i32 %44 to i64
  %46 = getelementptr inbounds i64, ptr %43, i64 %45
  %47 = load i64, ptr %46, align 8
  store i64 %47, ptr %8, align 8
  %48 = load ptr, ptr %3, align 8
  %49 = load i32, ptr %7, align 4
  %50 = sext i32 %49 to i64
  %51 = getelementptr inbounds i64, ptr %48, i64 %50
  %52 = load i64, ptr %51, align 8
  %53 = load ptr, ptr %3, align 8
  %54 = load i32, ptr %5, align 4
  %55 = sext i32 %54 to i64
  %56 = getelementptr inbounds i64, ptr %53, i64 %55
  store i64 %52, ptr %56, align 8
  %57 = load i64, ptr %8, align 8
  %58 = load ptr, ptr %3, align 8
  %59 = load i32, ptr %7, align 4
  %60 = sext i32 %59 to i64
  %61 = getelementptr inbounds i64, ptr %58, i64 %60
  store i64 %57, ptr %61, align 8
  br label %62

62:                                               ; preds = %42
  %63 = load i32, ptr %5, align 4
  %64 = add nsw i32 %63, 1
  store i32 %64, ptr %5, align 4
  br label %9, !llvm.loop !36

65:                                               ; preds = %9
  ret void
}

; Function Attrs: nounwind uwtable
define void @Abc_QuickSort3Inc_rec(ptr noundef %0, i32 noundef %1, i32 noundef %2) #0 {
  %4 = alloca ptr, align 8
  %5 = alloca i32, align 4
  %6 = alloca i32, align 4
  %7 = alloca i64, align 8
  %8 = alloca i32, align 4
  %9 = alloca i32, align 4
  %10 = alloca i32, align 4
  %11 = alloca i32, align 4
  %12 = alloca i32, align 4
  %13 = alloca i64, align 8
  %14 = alloca i64, align 8
  %15 = alloca i64, align 8
  %16 = alloca i64, align 8
  %17 = alloca i64, align 8
  %18 = alloca i64, align 8
  store ptr %0, ptr %4, align 8
  store i32 %1, ptr %5, align 4
  store i32 %2, ptr %6, align 4
  %19 = load ptr, ptr %4, align 8
  %20 = load i32, ptr %6, align 4
  %21 = sext i32 %20 to i64
  %22 = getelementptr inbounds i64, ptr %19, i64 %21
  %23 = load i64, ptr %22, align 8
  store i64 %23, ptr %7, align 8
  %24 = load i32, ptr %5, align 4
  %25 = sub nsw i32 %24, 1
  store i32 %25, ptr %9, align 4
  %26 = load i32, ptr %6, align 4
  store i32 %26, ptr %10, align 4
  %27 = load i32, ptr %5, align 4
  %28 = sub nsw i32 %27, 1
  store i32 %28, ptr %11, align 4
  %29 = load i32, ptr %6, align 4
  store i32 %29, ptr %12, align 4
  %30 = load i32, ptr %5, align 4
  %31 = load i32, ptr %6, align 4
  %32 = icmp sge i32 %30, %31
  br i1 %32, label %33, label %34

33:                                               ; preds = %3
  br label %262

34:                                               ; preds = %3
  %35 = load i32, ptr %6, align 4
  %36 = load i32, ptr %5, align 4
  %37 = sub nsw i32 %35, %36
  %38 = icmp slt i32 %37, 10
  br i1 %38, label %39, label %48

39:                                               ; preds = %34
  %40 = load ptr, ptr %4, align 8
  %41 = load i32, ptr %5, align 4
  %42 = sext i32 %41 to i64
  %43 = getelementptr inbounds i64, ptr %40, i64 %42
  %44 = load i32, ptr %6, align 4
  %45 = load i32, ptr %5, align 4
  %46 = sub nsw i32 %44, %45
  %47 = add nsw i32 %46, 1
  call void @Abc_SelectSortInc(ptr noundef %43, i32 noundef %47)
  br label %262

48:                                               ; preds = %34
  br label %49

49:                                               ; preds = %168, %48
  br label %50

50:                                               ; preds = %61, %49
  %51 = load ptr, ptr %4, align 8
  %52 = load i32, ptr %9, align 4
  %53 = add nsw i32 %52, 1
  store i32 %53, ptr %9, align 4
  %54 = sext i32 %53 to i64
  %55 = getelementptr inbounds i64, ptr %51, i64 %54
  %56 = load i64, ptr %55, align 8
  %57 = trunc i64 %56 to i32
  %58 = load i64, ptr %7, align 8
  %59 = trunc i64 %58 to i32
  %60 = icmp ult i32 %57, %59
  br i1 %60, label %61, label %62

61:                                               ; preds = %50
  br label %50, !llvm.loop !41

62:                                               ; preds = %50
  br label %63

63:                                               ; preds = %79, %62
  %64 = load i64, ptr %7, align 8
  %65 = trunc i64 %64 to i32
  %66 = load ptr, ptr %4, align 8
  %67 = load i32, ptr %10, align 4
  %68 = add nsw i32 %67, -1
  store i32 %68, ptr %10, align 4
  %69 = sext i32 %68 to i64
  %70 = getelementptr inbounds i64, ptr %66, i64 %69
  %71 = load i64, ptr %70, align 8
  %72 = trunc i64 %71 to i32
  %73 = icmp ult i32 %65, %72
  br i1 %73, label %74, label %80

74:                                               ; preds = %63
  %75 = load i32, ptr %10, align 4
  %76 = load i32, ptr %5, align 4
  %77 = icmp eq i32 %75, %76
  br i1 %77, label %78, label %79

78:                                               ; preds = %74
  br label %80

79:                                               ; preds = %74
  br label %63, !llvm.loop !42

80:                                               ; preds = %78, %63
  %81 = load i32, ptr %9, align 4
  %82 = load i32, ptr %10, align 4
  %83 = icmp sge i32 %81, %82
  br i1 %83, label %84, label %85

84:                                               ; preds = %80
  br label %169

85:                                               ; preds = %80
  %86 = load ptr, ptr %4, align 8
  %87 = load i32, ptr %9, align 4
  %88 = sext i32 %87 to i64
  %89 = getelementptr inbounds i64, ptr %86, i64 %88
  %90 = load i64, ptr %89, align 8
  store i64 %90, ptr %13, align 8
  %91 = load ptr, ptr %4, align 8
  %92 = load i32, ptr %10, align 4
  %93 = sext i32 %92 to i64
  %94 = getelementptr inbounds i64, ptr %91, i64 %93
  %95 = load i64, ptr %94, align 8
  %96 = load ptr, ptr %4, align 8
  %97 = load i32, ptr %9, align 4
  %98 = sext i32 %97 to i64
  %99 = getelementptr inbounds i64, ptr %96, i64 %98
  store i64 %95, ptr %99, align 8
  %100 = load i64, ptr %13, align 8
  %101 = load ptr, ptr %4, align 8
  %102 = load i32, ptr %10, align 4
  %103 = sext i32 %102 to i64
  %104 = getelementptr inbounds i64, ptr %101, i64 %103
  store i64 %100, ptr %104, align 8
  %105 = load ptr, ptr %4, align 8
  %106 = load i32, ptr %9, align 4
  %107 = sext i32 %106 to i64
  %108 = getelementptr inbounds i64, ptr %105, i64 %107
  %109 = load i64, ptr %108, align 8
  %110 = trunc i64 %109 to i32
  %111 = load i64, ptr %7, align 8
  %112 = trunc i64 %111 to i32
  %113 = icmp eq i32 %110, %112
  br i1 %113, label %114, label %136

114:                                              ; preds = %85
  %115 = load i32, ptr %11, align 4
  %116 = add nsw i32 %115, 1
  store i32 %116, ptr %11, align 4
  %117 = load ptr, ptr %4, align 8
  %118 = load i32, ptr %11, align 4
  %119 = sext i32 %118 to i64
  %120 = getelementptr inbounds i64, ptr %117, i64 %119
  %121 = load i64, ptr %120, align 8
  store i64 %121, ptr %14, align 8
  %122 = load ptr, ptr %4, align 8
  %123 = load i32, ptr %9, align 4
  %124 = sext i32 %123 to i64
  %125 = getelementptr inbounds i64, ptr %122, i64 %124
  %126 = load i64, ptr %125, align 8
  %127 = load ptr, ptr %4, align 8
  %128 = load i32, ptr %11, align 4
  %129 = sext i32 %128 to i64
  %130 = getelementptr inbounds i64, ptr %127, i64 %129
  store i64 %126, ptr %130, align 8
  %131 = load i64, ptr %14, align 8
  %132 = load ptr, ptr %4, align 8
  %133 = load i32, ptr %9, align 4
  %134 = sext i32 %133 to i64
  %135 = getelementptr inbounds i64, ptr %132, i64 %134
  store i64 %131, ptr %135, align 8
  br label %136

136:                                              ; preds = %114, %85
  %137 = load i64, ptr %7, align 8
  %138 = trunc i64 %137 to i32
  %139 = load ptr, ptr %4, align 8
  %140 = load i32, ptr %10, align 4
  %141 = sext i32 %140 to i64
  %142 = getelementptr inbounds i64, ptr %139, i64 %141
  %143 = load i64, ptr %142, align 8
  %144 = trunc i64 %143 to i32
  %145 = icmp eq i32 %138, %144
  br i1 %145, label %146, label %168

146:                                              ; preds = %136
  %147 = load i32, ptr %12, align 4
  %148 = add nsw i32 %147, -1
  store i32 %148, ptr %12, align 4
  %149 = load ptr, ptr %4, align 8
  %150 = load i32, ptr %10, align 4
  %151 = sext i32 %150 to i64
  %152 = getelementptr inbounds i64, ptr %149, i64 %151
  %153 = load i64, ptr %152, align 8
  store i64 %153, ptr %15, align 8
  %154 = load ptr, ptr %4, align 8
  %155 = load i32, ptr %12, align 4
  %156 = sext i32 %155 to i64
  %157 = getelementptr inbounds i64, ptr %154, i64 %156
  %158 = load i64, ptr %157, align 8
  %159 = load ptr, ptr %4, align 8
  %160 = load i32, ptr %10, align 4
  %161 = sext i32 %160 to i64
  %162 = getelementptr inbounds i64, ptr %159, i64 %161
  store i64 %158, ptr %162, align 8
  %163 = load i64, ptr %15, align 8
  %164 = load ptr, ptr %4, align 8
  %165 = load i32, ptr %12, align 4
  %166 = sext i32 %165 to i64
  %167 = getelementptr inbounds i64, ptr %164, i64 %166
  store i64 %163, ptr %167, align 8
  br label %168

168:                                              ; preds = %146, %136
  br label %49

169:                                              ; preds = %84
  %170 = load ptr, ptr %4, align 8
  %171 = load i32, ptr %9, align 4
  %172 = sext i32 %171 to i64
  %173 = getelementptr inbounds i64, ptr %170, i64 %172
  %174 = load i64, ptr %173, align 8
  store i64 %174, ptr %16, align 8
  %175 = load ptr, ptr %4, align 8
  %176 = load i32, ptr %6, align 4
  %177 = sext i32 %176 to i64
  %178 = getelementptr inbounds i64, ptr %175, i64 %177
  %179 = load i64, ptr %178, align 8
  %180 = load ptr, ptr %4, align 8
  %181 = load i32, ptr %9, align 4
  %182 = sext i32 %181 to i64
  %183 = getelementptr inbounds i64, ptr %180, i64 %182
  store i64 %179, ptr %183, align 8
  %184 = load i64, ptr %16, align 8
  %185 = load ptr, ptr %4, align 8
  %186 = load i32, ptr %6, align 4
  %187 = sext i32 %186 to i64
  %188 = getelementptr inbounds i64, ptr %185, i64 %187
  store i64 %184, ptr %188, align 8
  %189 = load i32, ptr %9, align 4
  %190 = sub nsw i32 %189, 1
  store i32 %190, ptr %10, align 4
  %191 = load i32, ptr %9, align 4
  %192 = add nsw i32 %191, 1
  store i32 %192, ptr %9, align 4
  %193 = load i32, ptr %5, align 4
  store i32 %193, ptr %8, align 4
  br label %194

194:                                              ; preds = %218, %169
  %195 = load i32, ptr %8, align 4
  %196 = load i32, ptr %11, align 4
  %197 = icmp slt i32 %195, %196
  br i1 %197, label %198, label %223

198:                                              ; preds = %194
  %199 = load ptr, ptr %4, align 8
  %200 = load i32, ptr %8, align 4
  %201 = sext i32 %200 to i64
  %202 = getelementptr inbounds i64, ptr %199, i64 %201
  %203 = load i64, ptr %202, align 8
  store i64 %203, ptr %17, align 8
  %204 = load ptr, ptr %4, align 8
  %205 = load i32, ptr %10, align 4
  %206 = sext i32 %205 to i64
  %207 = getelementptr inbounds i64, ptr %204, i64 %206
  %208 = load i64, ptr %207, align 8
  %209 = load ptr, ptr %4, align 8
  %210 = load i32, ptr %8, align 4
  %211 = sext i32 %210 to i64
  %212 = getelementptr inbounds i64, ptr %209, i64 %211
  store i64 %208, ptr %212, align 8
  %213 = load i64, ptr %17, align 8
  %214 = load ptr, ptr %4, align 8
  %215 = load i32, ptr %10, align 4
  %216 = sext i32 %215 to i64
  %217 = getelementptr inbounds i64, ptr %214, i64 %216
  store i64 %213, ptr %217, align 8
  br label %218

218:                                              ; preds = %198
  %219 = load i32, ptr %8, align 4
  %220 = add nsw i32 %219, 1
  store i32 %220, ptr %8, align 4
  %221 = load i32, ptr %10, align 4
  %222 = add nsw i32 %221, -1
  store i32 %222, ptr %10, align 4
  br label %194, !llvm.loop !43

223:                                              ; preds = %194
  %224 = load i32, ptr %6, align 4
  %225 = sub nsw i32 %224, 1
  store i32 %225, ptr %8, align 4
  br label %226

226:                                              ; preds = %250, %223
  %227 = load i32, ptr %8, align 4
  %228 = load i32, ptr %12, align 4
  %229 = icmp sgt i32 %227, %228
  br i1 %229, label %230, label %255

230:                                              ; preds = %226
  %231 = load ptr, ptr %4, align 8
  %232 = load i32, ptr %9, align 4
  %233 = sext i32 %232 to i64
  %234 = getelementptr inbounds i64, ptr %231, i64 %233
  %235 = load i64, ptr %234, align 8
  store i64 %235, ptr %18, align 8
  %236 = load ptr, ptr %4, align 8
  %237 = load i32, ptr %8, align 4
  %238 = sext i32 %237 to i64
  %239 = getelementptr inbounds i64, ptr %236, i64 %238
  %240 = load i64, ptr %239, align 8
  %241 = load ptr, ptr %4, align 8
  %242 = load i32, ptr %9, align 4
  %243 = sext i32 %242 to i64
  %244 = getelementptr inbounds i64, ptr %241, i64 %243
  store i64 %240, ptr %244, align 8
  %245 = load i64, ptr %18, align 8
  %246 = load ptr, ptr %4, align 8
  %247 = load i32, ptr %8, align 4
  %248 = sext i32 %247 to i64
  %249 = getelementptr inbounds i64, ptr %246, i64 %248
  store i64 %245, ptr %249, align 8
  br label %250

250:                                              ; preds = %230
  %251 = load i32, ptr %8, align 4
  %252 = add nsw i32 %251, -1
  store i32 %252, ptr %8, align 4
  %253 = load i32, ptr %9, align 4
  %254 = add nsw i32 %253, 1
  store i32 %254, ptr %9, align 4
  br label %226, !llvm.loop !44

255:                                              ; preds = %226
  %256 = load ptr, ptr %4, align 8
  %257 = load i32, ptr %5, align 4
  %258 = load i32, ptr %10, align 4
  call void @Abc_QuickSort3Inc_rec(ptr noundef %256, i32 noundef %257, i32 noundef %258)
  %259 = load ptr, ptr %4, align 8
  %260 = load i32, ptr %9, align 4
  %261 = load i32, ptr %6, align 4
  call void @Abc_QuickSort3Inc_rec(ptr noundef %259, i32 noundef %260, i32 noundef %261)
  br label %262

262:                                              ; preds = %255, %39, %33
  ret void
}