; Function Attrs: nofree nosync nounwind memory(argmem: readwrite) uwtable
define void @Abc_QuickSort3Inc_rec(ptr noundef captures(none) %0, i32 noundef %1, i32 noundef %2) local_unnamed_addr #1 {
  %4 = sext i32 %2 to i64
  %5 = getelementptr inbounds i64, ptr %0, i64 %4
  %.not142 = icmp slt i32 %1, %2
  br i1 %.not142, label %.lr.ph145, label %Abc_SelectSortInc.exit

.lr.ph145:                                        ; preds = %3
  %.1137 = add nsw i32 %2, -1
  %6 = add nsw i64 %4, -1
  br label %7

7:                                                ; preds = %.lr.ph145, %tailrecurse
  %.tr120143 = phi i32 [ %1, %.lr.ph145 ], [ %.2.lcssa, %tailrecurse ]
  %8 = sub nsw i32 %2, %.tr120143
  %9 = icmp slt i32 %8, 10
  br i1 %9, label %.lr.ph27.preheader.i, label %.preheader123

.preheader123:                                    ; preds = %7
  %10 = add nsw i32 %.tr120143, -1
  %11 = load i64, ptr %5, align 8
  %12 = trunc i64 %11 to i32
  br label %.outer

.outer:                                           ; preds = %63, %.preheader123
  %.0110.ph = phi i32 [ %64, %63 ], [ %2, %.preheader123 ]
  %.0108.ph = phi i32 [ %.1109, %63 ], [ %10, %.preheader123 ]
  %.0105.ph = phi i32 [ %47, %63 ], [ %2, %.preheader123 ]
  %.0103.ph = phi i32 [ %40, %63 ], [ %10, %.preheader123 ]
  br label %31

.lr.ph27.preheader.i:                             ; preds = %7
  %13 = sext i32 %.tr120143 to i64
  %14 = getelementptr inbounds i64, ptr %0, i64 %13
  %15 = add nsw i32 %8, 1
  %wide.trip.count35.i = zext nneg i32 %8 to i64
  %wide.trip.count.i = zext nneg i32 %15 to i64
  br label %.lr.ph.preheader.i

.lr.ph.preheader.i:                               ; preds = %._crit_edge.i, %.lr.ph27.preheader.i
  %indvars.iv32.i = phi i64 [ 0, %.lr.ph27.preheader.i ], [ %indvars.iv.next33.i, %._crit_edge.i ]
  %indvars.iv.i = phi i64 [ 1, %.lr.ph27.preheader.i ], [ %indvars.iv.next.i, %._crit_edge.i ]
  %16 = trunc nuw nsw i64 %indvars.iv32.i to i32
  br label %.lr.ph.i

.lr.ph.i:                                         ; preds = %.lr.ph.i, %.lr.ph.preheader.i
  %indvars.iv29.i = phi i64 [ %indvars.iv.i, %.lr.ph.preheader.i ], [ %indvars.iv.next30.i, %.lr.ph.i ]
  %.02124.i = phi i32 [ %16, %.lr.ph.preheader.i ], [ %spec.select.i, %.lr.ph.i ]
  %17 = getelementptr inbounds nuw i64, ptr %14, i64 %indvars.iv29.i
  %18 = load i64, ptr %17, align 8
  %19 = trunc i64 %18 to i32
  %20 = sext i32 %.02124.i to i64
  %21 = getelementptr inbounds i64, ptr %14, i64 %20
  %22 = load i64, ptr %21, align 8
  %23 = trunc i64 %22 to i32
  %24 = icmp ult i32 %19, %23
  %25 = trunc nuw nsw i64 %indvars.iv29.i to i32
  %spec.select.i = select i1 %24, i32 %25, i32 %.02124.i
  %indvars.iv.next30.i = add nuw nsw i64 %indvars.iv29.i, 1
  %exitcond.not.i = icmp eq i64 %indvars.iv.next30.i, %wide.trip.count.i
  br i1 %exitcond.not.i, label %._crit_edge.i, label %.lr.ph.i, !llvm.loop !28

._crit_edge.i:                                    ; preds = %.lr.ph.i
  %indvars.iv.next33.i = add nuw nsw i64 %indvars.iv32.i, 1
  %26 = getelementptr inbounds nuw i64, ptr %14, i64 %indvars.iv32.i
  %27 = load i64, ptr %26, align 8
  %28 = sext i32 %spec.select.i to i64
  %29 = getelementptr inbounds i64, ptr %14, i64 %28
  %30 = load i64, ptr %29, align 8
  store i64 %30, ptr %26, align 8
  store i64 %27, ptr %29, align 8
  %indvars.iv.next.i = add nuw nsw i64 %indvars.iv.i, 1
  %exitcond36.not.i = icmp eq i64 %indvars.iv.next33.i, %wide.trip.count35.i
  br i1 %exitcond36.not.i, label %Abc_SelectSortInc.exit, label %.lr.ph.preheader.i, !llvm.loop !29

31:                                               ; preds = %.outer, %60
  %.0108 = phi i32 [ %.1109, %60 ], [ %.0108.ph, %.outer ]
  %.0105 = phi i32 [ %47, %60 ], [ %.0105.ph, %.outer ]
  %.0103 = phi i32 [ %40, %60 ], [ %.0103.ph, %.outer ]
  %32 = sext i32 %.0103 to i64
  %33 = add i32 %.0103, 2
  br label %34

34:                                               ; preds = %34, %31
  %indvars.iv172 = phi i32 [ %indvars.iv.next173, %34 ], [ %33, %31 ]
  %indvars.iv = phi i64 [ %indvars.iv.next, %34 ], [ %32, %31 ]
  %indvars.iv.next = add nsw i64 %indvars.iv, 1
  %35 = getelementptr inbounds i64, ptr %0, i64 %indvars.iv.next
  %36 = load i64, ptr %35, align 8
  %37 = trunc i64 %36 to i32
  %38 = icmp ult i32 %37, %12
  %indvars.iv.next173 = add i32 %indvars.iv172, 1
  br i1 %38, label %34, label %.preheader, !llvm.loop !36

.preheader:                                       ; preds = %34
  %39 = getelementptr inbounds i64, ptr %0, i64 %indvars.iv.next
  %40 = trunc nsw i64 %indvars.iv.next to i32
  %41 = sext i32 %.0105 to i64
  br label %42

42:                                               ; preds = %.preheader, %42
  %indvars.iv159 = phi i64 [ %41, %.preheader ], [ %indvars.iv.next160, %42 ]
  %indvars.iv.next160 = add nsw i64 %indvars.iv159, -1
  %43 = getelementptr inbounds i64, ptr %0, i64 %indvars.iv.next160
  %44 = load i64, ptr %43, align 8
  %45 = trunc i64 %44 to i32
  %46 = icmp uge i32 %12, %45
  %47 = trunc nsw i64 %indvars.iv.next160 to i32
  %48 = icmp eq i32 %.tr120143, %47
  %or.cond = or i1 %48, %46
  br i1 %or.cond, label %49, label %42, !llvm.loop !37

49:                                               ; preds = %42
  %50 = getelementptr inbounds i64, ptr %0, i64 %indvars.iv.next160
  %.not119 = icmp slt i64 %indvars.iv.next, %indvars.iv.next160
  br i1 %.not119, label %51, label %68

51:                                               ; preds = %49
  store i64 %44, ptr %39, align 8
  store i64 %36, ptr %50, align 8
  %52 = load i64, ptr %39, align 8
  %53 = trunc i64 %52 to i32
  %54 = icmp eq i32 %53, %12
  br i1 %54, label %55, label %60

55:                                               ; preds = %51
  %56 = add nsw i32 %.0108, 1
  %57 = sext i32 %56 to i64
  %58 = getelementptr inbounds i64, ptr %0, i64 %57
  %59 = load i64, ptr %58, align 8
  store i64 %52, ptr %58, align 8
  store i64 %59, ptr %39, align 8
  %.pre = load i64, ptr %50, align 8
  %.pre179 = trunc i64 %.pre to i32
  br label %60

60:                                               ; preds = %55, %51
  %.pre-phi = phi i32 [ %.pre179, %55 ], [ %37, %51 ]
  %61 = phi i64 [ %.pre, %55 ], [ %36, %51 ]
  %.1109 = phi i32 [ %56, %55 ], [ %.0108, %51 ]
  %62 = icmp eq i32 %.pre-phi, %12
  br i1 %62, label %63, label %31

63:                                               ; preds = %60
  %64 = add nsw i32 %.0110.ph, -1
  %65 = sext i32 %64 to i64
  %66 = getelementptr inbounds i64, ptr %0, i64 %65
  %67 = load i64, ptr %66, align 8
  store i64 %67, ptr %50, align 8
  store i64 %61, ptr %66, align 8
  br label %.outer

68:                                               ; preds = %49
  %69 = trunc nsw i64 %indvars.iv to i32
  %70 = load i64, ptr %5, align 8
  store i64 %70, ptr %39, align 8
  store i64 %36, ptr %5, align 8
  %71 = add nsw i32 %69, 2
  %72 = icmp slt i32 %.tr120143, %.0108
  br i1 %72, label %.lr.ph.preheader, label %.preheader122

.lr.ph.preheader:                                 ; preds = %68
  %73 = sext i32 %.tr120143 to i64
  %wide.trip.count = sext i32 %.0108 to i64
  br label %.lr.ph

.preheader122.loopexit:                           ; preds = %.lr.ph
  %74 = trunc nsw i64 %indvars.iv.next165 to i32
  br label %.preheader122

.preheader122:                                    ; preds = %.preheader122.loopexit, %68
  %.2107.lcssa = phi i32 [ %69, %68 ], [ %74, %.preheader122.loopexit ]
  %75 = icmp sgt i32 %.1137, %.0110.ph
  br i1 %75, label %.lr.ph140.preheader, label %tailrecurse

.lr.ph140.preheader:                              ; preds = %.preheader122
  %76 = sext i32 %.0110.ph to i64
  %77 = sext i32 %indvars.iv172 to i64
  br label %.lr.ph140

.lr.ph:                                           ; preds = %.lr.ph.preheader, %.lr.ph
  %indvars.iv164 = phi i64 [ %indvars.iv, %.lr.ph.preheader ], [ %indvars.iv.next165, %.lr.ph ]
  %indvars.iv162 = phi i64 [ %73, %.lr.ph.preheader ], [ %indvars.iv.next163, %.lr.ph ]
  %78 = getelementptr inbounds i64, ptr %0, i64 %indvars.iv162
  %79 = load i64, ptr %78, align 8
  %80 = getelementptr inbounds i64, ptr %0, i64 %indvars.iv164
  %81 = load i64, ptr %80, align 8
  store i64 %81, ptr %78, align 8
  store i64 %79, ptr %80, align 8
  %indvars.iv.next163 = add nsw i64 %indvars.iv162, 1
  %indvars.iv.next165 = add nsw i64 %indvars.iv164, -1
  %exitcond.not = icmp eq i64 %indvars.iv.next163, %wide.trip.count
  br i1 %exitcond.not, label %.preheader122.loopexit, label %.lr.ph, !llvm.loop !38

.lr.ph140:                                        ; preds = %.lr.ph140.preheader, %.lr.ph140
  %indvars.iv174 = phi i64 [ %77, %.lr.ph140.preheader ], [ %indvars.iv.next175, %.lr.ph140 ]
  %indvars.iv170 = phi i64 [ %6, %.lr.ph140.preheader ], [ %indvars.iv.next171, %.lr.ph140 ]
  %82 = getelementptr inbounds i64, ptr %0, i64 %indvars.iv174
  %83 = load i64, ptr %82, align 8
  %84 = getelementptr inbounds i64, ptr %0, i64 %indvars.iv170
  %85 = load i64, ptr %84, align 8
  store i64 %85, ptr %82, align 8
  store i64 %83, ptr %84, align 8
  %indvars.iv.next175 = add nsw i64 %indvars.iv174, 1
  %indvars.iv.next171 = add nsw i64 %indvars.iv170, -1
  %86 = icmp sgt i64 %indvars.iv.next171, %76
  br i1 %86, label %.lr.ph140, label %tailrecurse.loopexit, !llvm.loop !39

tailrecurse.loopexit:                             ; preds = %.lr.ph140
  %87 = trunc nsw i64 %indvars.iv.next175 to i32
  br label %tailrecurse

tailrecurse:                                      ; preds = %tailrecurse.loopexit, %.preheader122
  %.2.lcssa = phi i32 [ %71, %.preheader122 ], [ %87, %tailrecurse.loopexit ]
  tail call void @Abc_QuickSort3Inc_rec(ptr noundef nonnull %0, i32 noundef %.tr120143, i32 noundef %.2107.lcssa)
  %.not = icmp slt i32 %.2.lcssa, %2
  br i1 %.not, label %7, label %Abc_SelectSortInc.exit

Abc_SelectSortInc.exit:                           ; preds = %tailrecurse, %._crit_edge.i, %3
  ret void
}